; Function Attrs: mustprogress nofree norecurse nosync nounwind willreturn memory(argmem: readwrite) uwtable
define void @_ZN11LayerDialog15clickAnimSlowerEv(ptr nocapture noundef nonnull align 8 dereferenceable(256) %0) local_unnamed_addr #13 align 2 {
  %2 = getelementptr inbounds i8, ptr %0, i64 200
  %3 = load i32, ptr %2, align 8
  %4 = icmp slt i32 %3, 3000
  br i1 %4, label %5, label %9

5:                                                ; preds = %1
  %6 = sitofp i32 %3 to double
  %7 = fmul double %6, 1.200000e+00
  %8 = fptosi double %7 to i32
  store i32 %8, ptr %2, align 8
  br label %9

9:                                                ; preds = %5, %1
  ret void
}